; Function Attrs: mustprogress nofree norecurse nosync nounwind willreturn memory(readwrite, inaccessiblemem: none) uwtable
define void @_ZN5ImGui8LogBeginEii(i32 noundef %0, i32 noundef %1) local_unnamed_addr #34 {
  %3 = load ptr, ptr @GImGui, align 8, !tbaa !216
  %4 = getelementptr inbounds nuw i8, ptr %3, i64 5016
  %5 = load ptr, ptr %4, align 8, !tbaa !314
  %6 = getelementptr inbounds nuw i8, ptr %3, i64 5130
  store i8 1, ptr %6, align 2, !tbaa !799
  %7 = getelementptr inbounds nuw i8, ptr %3, i64 9816
  store i8 1, ptr %7, align 8, !tbaa !395
  %8 = getelementptr inbounds nuw i8, ptr %3, i64 9820
  store i32 %0, ptr %8, align 4, !tbaa !1172
  %9 = getelementptr inbounds nuw i8, ptr %3, i64 9824
  store ptr %5, ptr %9, align 8, !tbaa !1173
  %10 = getelementptr inbounds nuw i8, ptr %3, i64 9856
  %11 = getelementptr inbounds nuw i8, ptr %5, i64 416
  tail call void @llvm.memset.p0.i64(ptr noundef nonnull align 8 dereferenceable(16) %10, i8 0, i64 16, i1 false)
  %12 = load i32, ptr %11, align 8, !tbaa !461
  %13 = getelementptr inbounds nuw i8, ptr %3, i64 9880
  store i32 %12, ptr %13, align 8, !tbaa !460
  %14 = icmp sgt i32 %1, -1
  br i1 %14, label %18, label %15

15:                                               ; preds = %2
  %16 = getelementptr inbounds nuw i8, ptr %3, i64 9888
  %17 = load i32, ptr %16, align 8, !tbaa !640
  br label %18

18:                                               ; preds = %2, %15
  %19 = phi i32 [ %17, %15 ], [ %1, %2 ]
  %20 = getelementptr inbounds nuw i8, ptr %3, i64 9884
  store i32 %19, ptr %20, align 4, !tbaa !641
  %21 = getelementptr inbounds nuw i8, ptr %3, i64 9872
  store float 0x47EFFFFFE0000000, ptr %21, align 8, !tbaa !457
  %22 = getelementptr inbounds nuw i8, ptr %3, i64 9876
  store i8 1, ptr %22, align 4, !tbaa !459
  ret void
}